target datalayout = "e-m:e-p270:32:32-p271:32:32-p272:64:64-i64:64-i128:128-f80:128-n8:16:32:64-S128"
target triple = "x86_64-unknown-linux-gnu"

%"class.FLAC::Metadata::Prototype" = type <{ ptr, ptr, i8, [7 x i8] }>
%"class.FLAC::Metadata::SimpleIterator" = type { ptr, ptr }

; Function Attrs: mustprogress sspstrong uwtable
define noundef zeroext i1 @_ZN4FLAC8Metadata14SimpleIterator18insert_block_afterEPNS0_9PrototypeEb(ptr noundef nonnull align 8 dereferenceable(16) %this, ptr noundef %block, i1 noundef zeroext %use_padding) #0 align 2 {
entry:
  %this.addr = alloca ptr, align 8
  %block.addr = alloca ptr, align 8
  %use_padding.addr = alloca i8, align 1
  store ptr %this, ptr %this.addr, align 8
  store ptr %block, ptr %block.addr, align 8
  %frombool = zext i1 %use_padding to i8
  store i8 %frombool, ptr %use_padding.addr, align 1
  %this1 = load ptr, ptr %this.addr, align 8
  %iterator_ = getelementptr inbounds %"class.FLAC::Metadata::SimpleIterator", ptr %this1, i32 0, i32 1
  %0 = load ptr, ptr %iterator_, align 8
  %1 = load ptr, ptr %block.addr, align 8
  %object_ = getelementptr inbounds %"class.FLAC::Metadata::Prototype", ptr %1, i32 0, i32 1
  %2 = load ptr, ptr %object_, align 8
  %3 = load i8, ptr %use_padding.addr, align 1
  %tobool = trunc i8 %3 to i1
  %conv = zext i1 %tobool to i32
  %call = call i32 @FLAC__metadata_simple_iterator_insert_block_after(ptr noundef %0, ptr noundef %2, i32 noundef %conv)
  %tobool2 = icmp ne i32 %call, 0
  ret i1 %tobool2
}