; Function Attrs: mustprogress sspstrong uwtable
define noundef zeroext i1 @_ZN4FLAC8Metadata14SimpleIterator18insert_block_afterEPNS0_9PrototypeEb(ptr nocapture noundef nonnull readonly align 8 dereferenceable(16) %this, ptr nocapture noundef readonly %block, i1 noundef zeroext %use_padding) local_unnamed_addr #0 align 2 {
entry:
  %iterator_ = getelementptr inbounds i8, ptr %this, i64 8
  %0 = load ptr, ptr %iterator_, align 8
  %object_ = getelementptr inbounds i8, ptr %block, i64 8
  %1 = load ptr, ptr %object_, align 8
  %conv = zext i1 %use_padding to i32
  %call = tail call i32 @FLAC__metadata_simple_iterator_insert_block_after(ptr noundef %0, ptr noundef %1, i32 noundef %conv)
  %tobool2 = icmp ne i32 %call, 0
  ret i1 %tobool2
}